; Function Attrs: mustprogress uwtable
define dso_local void @_ZN4Luau16TypePackIteratorppEi(ptr dead_on_unwind noalias writable writeonly sret(%"struct.Luau::TypePackIterator") align 8 captures(none) initializes((0, 32)) %0, ptr noundef nonnull align 8 captures(none) dereferenceable(32) %1, i32 noundef %2) local_unnamed_addr #2 align 2 {
  tail call void @llvm.memcpy.p0.p0.i64(ptr noundef nonnull align 8 dereferenceable(32) %0, ptr noundef nonnull align 8 dereferenceable(32) %1, i64 32, i1 false), !tbaa.struct !99
  %4 = getelementptr inbounds nuw i8, ptr %1, i64 16
  %5 = load i64, ptr %4, align 8, !tbaa !98
  %6 = add i64 %5, 1
  %7 = getelementptr inbounds nuw i8, ptr %1, i64 8
  store i64 %6, ptr %4, align 8, !tbaa !98
  %8 = load ptr, ptr %7, align 8, !tbaa !97
  %.not5.i = icmp eq ptr %8, null
  br i1 %.not5.i, label %_ZN4Luau16TypePackIteratorppEv.exit, label %.lr.ph.i

.lr.ph.i:                                         ; preds = %3
  %9 = getelementptr inbounds nuw i8, ptr %1, i64 24
  %10 = getelementptr inbounds nuw i8, ptr %8, i64 8
  %11 = load ptr, ptr %10, align 8, !tbaa !85
  %12 = load ptr, ptr %8, align 8, !tbaa !81
  %13 = ptrtoint ptr %11 to i64
  %14 = ptrtoint ptr %12 to i64
  %15 = sub i64 %13, %14
  %16 = ashr exact i64 %15, 3
  %.not2.i1 = icmp ult i64 %6, %16
  br i1 %.not2.i1, label %_ZN4Luau16TypePackIteratorppEv.exit, label %.lr.ph

.lr.ph:                                           ; preds = %.lr.ph.i, %30
  %17 = phi ptr [ %31, %30 ], [ %8, %.lr.ph.i ]
  %18 = getelementptr inbounds nuw i8, ptr %17, i64 32
  %19 = load i8, ptr %18, align 8, !tbaa !72, !range !74, !noundef !75
  %20 = trunc nuw i8 %19 to i1
  br i1 %20, label %21, label %.thread.i

.thread.i:                                        ; preds = %.lr.ph
  store ptr null, ptr %1, align 8, !tbaa !92
  br label %.thread8.i

21:                                               ; preds = %.lr.ph
  %22 = getelementptr inbounds nuw i8, ptr %17, i64 24
  %23 = load ptr, ptr %9, align 8, !tbaa !96
  %24 = load ptr, ptr %22, align 8, !tbaa !76
  %25 = tail call noundef ptr @_ZNK4Luau6TxnLog6followEPKNS_11TypePackVarE(ptr noundef nonnull align 8 dereferenceable(128) %23, ptr noundef %24)
  store ptr %25, ptr %1, align 8, !tbaa !92
  %.not3.i = icmp eq ptr %25, null
  br i1 %.not3.i, label %.thread8.i, label %_ZNK4Luau6TxnLog10getMutableINS_8TypePackEPKNS_11TypePackVarEEEPT_T0_.exit.i

_ZNK4Luau6TxnLog10getMutableINS_8TypePackEPKNS_11TypePackVarEEEPT_T0_.exit.i: ; preds = %21
  %26 = load ptr, ptr %9, align 8, !tbaa !96
  %27 = tail call noundef ptr @_ZNK4Luau6TxnLog7pendingEPKNS_11TypePackVarE(ptr noundef nonnull align 8 dereferenceable(128) %26, ptr noundef nonnull %25)
  %.not.i.i = icmp eq ptr %27, null
  %spec.select.i = select i1 %.not.i.i, ptr %25, ptr %27
  %28 = load i32, ptr %spec.select.i, align 8, !tbaa !49
  %29 = icmp eq i32 %28, 4
  br i1 %29, label %30, label %.thread8.i

.thread8.i:                                       ; preds = %_ZNK4Luau6TxnLog10getMutableINS_8TypePackEPKNS_11TypePackVarEEEPT_T0_.exit.i, %21, %.thread.i
  tail call void @llvm.memset.p0.i64(ptr noundef nonnull align 8 dereferenceable(16) %7, i8 0, i64 16, i1 false)
  br label %_ZN4Luau16TypePackIteratorppEv.exit

30:                                               ; preds = %_ZNK4Luau6TxnLog10getMutableINS_8TypePackEPKNS_11TypePackVarEEEPT_T0_.exit.i
  %31 = getelementptr inbounds nuw i8, ptr %spec.select.i, i64 8
  store ptr %31, ptr %7, align 8, !tbaa !97
  store i64 0, ptr %4, align 8, !tbaa !98
  %32 = getelementptr inbounds nuw i8, ptr %spec.select.i, i64 16
  %33 = load ptr, ptr %32, align 8, !tbaa !85
  %34 = load ptr, ptr %31, align 8, !tbaa !81
  %.not2.i.not = icmp eq ptr %33, %34
  br i1 %.not2.i.not, label %.lr.ph, label %_ZN4Luau16TypePackIteratorppEv.exit, !llvm.loop !86

_ZN4Luau16TypePackIteratorppEv.exit:              ; preds = %30, %.lr.ph.i, %3, %.thread8.i
  ret void
}